target datalayout = "e-m:e-p270:32:32-p271:32:32-p272:64:64-i64:64-i128:128-f80:128-n8:16:32:64-S128"
target triple = "x86_64-pc-linux-gnu"

%struct.CSzFolder = type { ptr, ptr, ptr, ptr, i32, i32, i32, i32, i32, i32 }
%struct.CSzBindPair = type { i32, i32 }

; Function Attrs: nounwind uwtable
define i32 @SzFolder_FindBindPairForOutStream(ptr noundef %0, i32 noundef %1) #0 {
  %3 = alloca i32, align 4
  %4 = alloca ptr, align 8
  %5 = alloca i32, align 4
  %6 = alloca i32, align 4
  store ptr %0, ptr %4, align 8
  store i32 %1, ptr %5, align 4
  store i32 0, ptr %6, align 4
  br label %7

7:                                                ; preds = %27, %2
  %8 = load i32, ptr %6, align 4
  %9 = load ptr, ptr %4, align 8
  %10 = getelementptr inbounds %struct.CSzFolder, ptr %9, i32 0, i32 5
  %11 = load i32, ptr %10, align 4
  %12 = icmp ult i32 %8, %11
  br i1 %12, label %13, label %30

13:                                               ; preds = %7
  %14 = load ptr, ptr %4, align 8
  %15 = getelementptr inbounds %struct.CSzFolder, ptr %14, i32 0, i32 1
  %16 = load ptr, ptr %15, align 8
  %17 = load i32, ptr %6, align 4
  %18 = zext i32 %17 to i64
  %19 = getelementptr inbounds %struct.CSzBindPair, ptr %16, i64 %18
  %20 = getelementptr inbounds %struct.CSzBindPair, ptr %19, i32 0, i32 1
  %21 = load i32, ptr %20, align 4
  %22 = load i32, ptr %5, align 4
  %23 = icmp eq i32 %21, %22
  br i1 %23, label %24, label %26

24:                                               ; preds = %13
  %25 = load i32, ptr %6, align 4
  store i32 %25, ptr %3, align 4
  br label %31

26:                                               ; preds = %13
  br label %27

27:                                               ; preds = %26
  %28 = load i32, ptr %6, align 4
  %29 = add i32 %28, 1
  store i32 %29, ptr %6, align 4
  br label %7

30:                                               ; preds = %7
  store i32 -1, ptr %3, align 4
  br label %31

31:                                               ; preds = %30, %24
  %32 = load i32, ptr %3, align 4
  ret i32 %32
}