; Function Attrs: nofree norecurse nosync nounwind memory(read, inaccessiblemem: none) uwtable
define i32 @SzFolder_FindBindPairForOutStream(ptr noundef readonly captures(none) %0, i32 noundef %1) local_unnamed_addr #3 {
  %3 = getelementptr inbounds nuw i8, ptr %0, i64 36
  %4 = load i32, ptr %3, align 4
  %.not = icmp eq i32 %4, 0
  br i1 %.not, label %._crit_edge, label %.lr.ph

.lr.ph:                                           ; preds = %2
  %5 = getelementptr inbounds nuw i8, ptr %0, i64 8
  %6 = load ptr, ptr %5, align 8
  %wide.trip.count = zext i32 %4 to i64
  br label %7

7:                                                ; preds = %.lr.ph, %11
  %indvars.iv = phi i64 [ 0, %.lr.ph ], [ %indvars.iv.next, %11 ]
  %8 = getelementptr inbounds nuw %struct.CSzBindPair, ptr %6, i64 %indvars.iv, i32 1
  %9 = load i32, ptr %8, align 4
  %10 = icmp eq i32 %9, %1
  br i1 %10, label %._crit_edge.loopexit.split.loop.exit12, label %11

11:                                               ; preds = %7
  %indvars.iv.next = add nuw nsw i64 %indvars.iv, 1
  %exitcond.not = icmp eq i64 %indvars.iv.next, %wide.trip.count
  br i1 %exitcond.not, label %._crit_edge, label %7

._crit_edge.loopexit.split.loop.exit12:           ; preds = %7
  %12 = trunc nuw i64 %indvars.iv to i32
  br label %._crit_edge

._crit_edge:                                      ; preds = %11, %._crit_edge.loopexit.split.loop.exit12, %2
  %.07 = phi i32 [ -1, %2 ], [ %12, %._crit_edge.loopexit.split.loop.exit12 ], [ -1, %11 ]
  ret i32 %.07
}